; ModuleID = 'bench/openssl/original/x_exten.ll'
source_filename = "bench/openssl/original/x_exten.ll"
target datalayout = "e-m:e-p270:32:32-p271:32:32-p272:64:64-i64:64-i128:128-f80:128-n8:16:32:64-S128"
target triple = "x86_64-pc-linux-gnu"

%struct.ASN1_TEMPLATE_st = type { i64, i64, i64, ptr, ptr }

@X509_EXTENSION_it.local_it = internal constant { i8, [7 x i8], i64, ptr, i64, ptr, i64, ptr } { i8 1, [7 x i8] zeroinitializer, i64 16, ptr @X509_EXTENSION_seq_tt, i64 3, ptr null, i64 40, ptr @.str }, align 8
@X509_EXTENSION_seq_tt = internal constant [3 x %struct.ASN1_TEMPLATE_st] [%struct.ASN1_TEMPLATE_st { i64 0, i64 0, i64 0, ptr @.str.2, ptr @ASN1_OBJECT_it }, %struct.ASN1_TEMPLATE_st { i64 1, i64 0, i64 8, ptr @.str.3, ptr @ASN1_FBOOLEAN_it }, %struct.ASN1_TEMPLATE_st { i64 4096, i64 0, i64 16, ptr @.str.4, ptr @ASN1_OCTET_STRING_it }], align 16
@.str = private unnamed_addr constant [15 x i8] c"X509_EXTENSION\00", align 1
@X509_EXTENSIONS_it.local_it = internal constant { i8, [7 x i8], i64, ptr, i64, ptr, i64, ptr } { i8 0, [7 x i8] zeroinitializer, i64 -1, ptr @X509_EXTENSIONS_item_tt, i64 0, ptr null, i64 0, ptr @.str.1 }, align 8
@X509_EXTENSIONS_item_tt = internal constant %struct.ASN1_TEMPLATE_st { i64 4, i64 0, i64 0, ptr @.str.5, ptr @X509_EXTENSION_it }, align 8
@.str.1 = private unnamed_addr constant [16 x i8] c"X509_EXTENSIONS\00", align 1
@.str.2 = private unnamed_addr constant [7 x i8] c"object\00", align 1
@.str.3 = private unnamed_addr constant [9 x i8] c"critical\00", align 1
@.str.4 = private unnamed_addr constant [6 x i8] c"value\00", align 1
@.str.5 = private unnamed_addr constant [10 x i8] c"Extension\00", align 1

; Function Attrs: mustprogress nofree norecurse nosync nounwind willreturn memory(none) uwtable
define noundef nonnull ptr @X509_EXTENSION_it() #0 {
  ret ptr @X509_EXTENSION_it.local_it
}

; Function Attrs: mustprogress nofree norecurse nosync nounwind willreturn memory(none) uwtable
define noundef nonnull ptr @X509_EXTENSIONS_it() local_unnamed_addr #0 {
  ret ptr @X509_EXTENSIONS_it.local_it
}

; Function Attrs: nounwind uwtable
define ptr @d2i_X509_EXTENSION(ptr noundef %0, ptr noundef %1, i64 noundef %2) local_unnamed_addr #1 {
  %4 = tail call ptr @ASN1_item_d2i(ptr noundef %0, ptr noundef %1, i64 noundef %2, ptr noundef nonnull @X509_EXTENSION_it.local_it) #3
  ret ptr %4
}

declare ptr @ASN1_item_d2i(ptr noundef, ptr noundef, i64 noundef, ptr noundef) local_unnamed_addr #2

; Function Attrs: nounwind uwtable
define i32 @i2d_X509_EXTENSION(ptr noundef %0, ptr noundef %1) local_unnamed_addr #1 {
  %3 = tail call i32 @ASN1_item_i2d(ptr noundef %0, ptr noundef %1, ptr noundef nonnull @X509_EXTENSION_it.local_it) #3
  ret i32 %3
}

declare i32 @ASN1_item_i2d(ptr noundef, ptr noundef, ptr noundef) local_unnamed_addr #2

; Function Attrs: nounwind uwtable
define ptr @X509_EXTENSION_new() local_unnamed_addr #1 {
  %1 = tail call ptr @ASN1_item_new(ptr noundef nonnull @X509_EXTENSION_it.local_it) #3
  ret ptr %1
}

declare ptr @ASN1_item_new(ptr noundef) local_unnamed_addr #2

; Function Attrs: nounwind uwtable
define void @X509_EXTENSION_free(ptr noundef %0) local_unnamed_addr #1 {
  tail call void @ASN1_item_free(ptr noundef %0, ptr noundef nonnull @X509_EXTENSION_it.local_it) #3
  ret void
}

declare void @ASN1_item_free(ptr noundef, ptr noundef) local_unnamed_addr #2

; Function Attrs: nounwind uwtable
define ptr @d2i_X509_EXTENSIONS(ptr noundef %0, ptr noundef %1, i64 noundef %2) local_unnamed_addr #1 {
  %4 = tail call ptr @ASN1_item_d2i(ptr noundef %0, ptr noundef %1, i64 noundef %2, ptr noundef nonnull @X509_EXTENSIONS_it.local_it) #3
  ret ptr %4
}

; Function Attrs: nounwind uwtable
define i32 @i2d_X509_EXTENSIONS(ptr noundef %0, ptr noundef %1) local_unnamed_addr #1 {
  %3 = tail call i32 @ASN1_item_i2d(ptr noundef %0, ptr noundef %1, ptr noundef nonnull @X509_EXTENSIONS_it.local_it) #3
  ret i32 %3
}

; Function Attrs: nounwind uwtable
define ptr @X509_EXTENSION_dup(ptr noundef %0) local_unnamed_addr #1 {
  %2 = tail call ptr @ASN1_item_dup(ptr noundef nonnull @X509_EXTENSION_it.local_it, ptr noundef %0) #3
  ret ptr %2
}

declare ptr @ASN1_item_dup(ptr noundef, ptr noundef) local_unnamed_addr #2

declare ptr @ASN1_OBJECT_it() #2

declare ptr @ASN1_FBOOLEAN_it() #2

declare ptr @ASN1_OCTET_STRING_it() #2


!llvm.module.flags = !{!0, !1, !2}

!0 = !{i32 1, !"wchar_size", i32 4}
!1 = !{i32 8, !"PIC Level", i32 2}
!2 = !{i32 7, !"uwtable", i32 2}
